target datalayout = "e-m:e-p270:32:32-p271:32:32-p272:64:64-i64:64-i128:128-f80:128-n8:16:32:64-S128"
target triple = "x86_64-pc-linux-gnu"

; Function Attrs: nounwind uwtable
define dso_local zeroext i1 @looks_like_temp_rel_name(ptr noundef %0) #0 {
  %2 = alloca i1, align 1
  %3 = alloca ptr, align 8
  %4 = alloca i32, align 4
  %5 = alloca i32, align 4
  %6 = alloca i32, align 4
  %7 = alloca i32, align 4
  %8 = alloca i32, align 4
  store ptr %0, ptr %3, align 8
  call void @llvm.lifetime.start.p0(i64 4, ptr %4) #14
  call void @llvm.lifetime.start.p0(i64 4, ptr %5) #14
  %9 = load ptr, ptr %3, align 8
  %10 = getelementptr inbounds i8, ptr %9, i64 0
  %11 = load i8, ptr %10, align 1
  %12 = sext i8 %11 to i32
  %13 = icmp ne i32 %12, 116
  br i1 %13, label %14, label %15

14:                                               ; preds = %1
  store i1 false, ptr %2, align 1
  store i32 1, ptr %6, align 4
  br label %151

15:                                               ; preds = %1
  store i32 1, ptr %4, align 4
  br label %16

16:                                               ; preds = %32, %15
  %17 = call ptr @__ctype_b_loc() #15
  %18 = load ptr, ptr %17, align 8
  %19 = load ptr, ptr %3, align 8
  %20 = load i32, ptr %4, align 4
  %21 = sext i32 %20 to i64
  %22 = getelementptr inbounds i8, ptr %19, i64 %21
  %23 = load i8, ptr %22, align 1
  %24 = zext i8 %23 to i32
  %25 = sext i32 %24 to i64
  %26 = getelementptr inbounds i16, ptr %18, i64 %25
  %27 = load i16, ptr %26, align 2
  %28 = zext i16 %27 to i32
  %29 = and i32 %28, 2048
  %30 = icmp ne i32 %29, 0
  br i1 %30, label %31, label %35

31:                                               ; preds = %16
  br label %32

32:                                               ; preds = %31
  %33 = load i32, ptr %4, align 4
  %34 = add i32 %33, 1
  store i32 %34, ptr %4, align 4
  br label %16, !llvm.loop !26

35:                                               ; preds = %16
  %36 = load i32, ptr %4, align 4
  %37 = icmp eq i32 %36, 1
  br i1 %37, label %46, label %38

38:                                               ; preds = %35
  %39 = load ptr, ptr %3, align 8
  %40 = load i32, ptr %4, align 4
  %41 = sext i32 %40 to i64
  %42 = getelementptr inbounds i8, ptr %39, i64 %41
  %43 = load i8, ptr %42, align 1
  %44 = sext i8 %43 to i32
  %45 = icmp ne i32 %44, 95
  br i1 %45, label %46, label %47

46:                                               ; preds = %38, %35
  store i1 false, ptr %2, align 1
  store i32 1, ptr %6, align 4
  br label %151

47:                                               ; preds = %38
  %48 = load i32, ptr %4, align 4
  %49 = add i32 %48, 1
  store i32 %49, ptr %4, align 4
  store i32 %49, ptr %5, align 4
  br label %50

50:                                               ; preds = %66, %47
  %51 = call ptr @__ctype_b_loc() #15
  %52 = load ptr, ptr %51, align 8
  %53 = load ptr, ptr %3, align 8
  %54 = load i32, ptr %4, align 4
  %55 = sext i32 %54 to i64
  %56 = getelementptr inbounds i8, ptr %53, i64 %55
  %57 = load i8, ptr %56, align 1
  %58 = zext i8 %57 to i32
  %59 = sext i32 %58 to i64
  %60 = getelementptr inbounds i16, ptr %52, i64 %59
  %61 = load i16, ptr %60, align 2
  %62 = zext i16 %61 to i32
  %63 = and i32 %62, 2048
  %64 = icmp ne i32 %63, 0
  br i1 %64, label %65, label %69

65:                                               ; preds = %50
  br label %66

66:                                               ; preds = %65
  %67 = load i32, ptr %4, align 4
  %68 = add i32 %67, 1
  store i32 %68, ptr %4, align 4
  br label %50, !llvm.loop !27

69:                                               ; preds = %50
  %70 = load i32, ptr %5, align 4
  %71 = load i32, ptr %4, align 4
  %72 = icmp eq i32 %70, %71
  br i1 %72, label %73, label %74

73:                                               ; preds = %69
  store i1 false, ptr %2, align 1
  store i32 1, ptr %6, align 4
  br label %151

74:                                               ; preds = %69
  %75 = load ptr, ptr %3, align 8
  %76 = load i32, ptr %4, align 4
  %77 = sext i32 %76 to i64
  %78 = getelementptr inbounds i8, ptr %75, i64 %77
  %79 = load i8, ptr %78, align 1
  %80 = sext i8 %79 to i32
  %81 = icmp eq i32 %80, 95
  br i1 %81, label %82, label %100

82:                                               ; preds = %74
  call void @llvm.lifetime.start.p0(i64 4, ptr %7) #14
  %83 = load ptr, ptr %3, align 8
  %84 = load i32, ptr %4, align 4
  %85 = add i32 %84, 1
  %86 = sext i32 %85 to i64
  %87 = getelementptr inbounds i8, ptr %83, i64 %86
  %88 = call i32 @forkname_chars(ptr noundef %87, ptr noundef null)
  store i32 %88, ptr %7, align 4
  %89 = load i32, ptr %7, align 4
  %90 = icmp sle i32 %89, 0
  br i1 %90, label %91, label %92

91:                                               ; preds = %82
  store i1 false, ptr %2, align 1
  store i32 1, ptr %6, align 4
  br label %97

92:                                               ; preds = %82
  %93 = load i32, ptr %7, align 4
  %94 = add i32 %93, 1
  %95 = load i32, ptr %4, align 4
  %96 = add i32 %95, %94
  store i32 %96, ptr %4, align 4
  store i32 0, ptr %6, align 4
  br label %97

97:                                               ; preds = %92, %91
  call void @llvm.lifetime.end.p0(i64 4, ptr %7) #14
  %98 = load i32, ptr %6, align 4
  switch i32 %98, label %151 [
    i32 0, label %99
  ]

99:                                               ; preds = %97
  br label %100

100:                                              ; preds = %99, %74
  %101 = load ptr, ptr %3, align 8
  %102 = load i32, ptr %4, align 4
  %103 = sext i32 %102 to i64
  %104 = getelementptr inbounds i8, ptr %101, i64 %103
  %105 = load i8, ptr %104, align 1
  %106 = sext i8 %105 to i32
  %107 = icmp eq i32 %106, 46
  br i1 %107, label %108, label %141

108:                                              ; preds = %100
  call void @llvm.lifetime.start.p0(i64 4, ptr %8) #14
  store i32 1, ptr %8, align 4
  br label %109

109:                                              ; preds = %127, %108
  %110 = call ptr @__ctype_b_loc() #15
  %111 = load ptr, ptr %110, align 8
  %112 = load ptr, ptr %3, align 8
  %113 = load i32, ptr %4, align 4
  %114 = load i32, ptr %8, align 4
  %115 = add i32 %113, %114
  %116 = sext i32 %115 to i64
  %117 = getelementptr inbounds i8, ptr %112, i64 %116
  %118 = load i8, ptr %117, align 1
  %119 = zext i8 %118 to i32
  %120 = sext i32 %119 to i64
  %121 = getelementptr inbounds i16, ptr %111, i64 %120
  %122 = load i16, ptr %121, align 2
  %123 = zext i16 %122 to i32
  %124 = and i32 %123, 2048
  %125 = icmp ne i32 %124, 0
  br i1 %125, label %126, label %130

126:                                              ; preds = %109
  br label %127

127:                                              ; preds = %126
  %128 = load i32, ptr %8, align 4
  %129 = add i32 %128, 1
  store i32 %129, ptr %8, align 4
  br label %109, !llvm.loop !28

130:                                              ; preds = %109
  %131 = load i32, ptr %8, align 4
  %132 = icmp sle i32 %131, 1
  br i1 %132, label %133, label %134

133:                                              ; preds = %130
  store i1 false, ptr %2, align 1
  store i32 1, ptr %6, align 4
  br label %138

134:                                              ; preds = %130
  %135 = load i32, ptr %8, align 4
  %136 = load i32, ptr %4, align 4
  %137 = add i32 %136, %135
  store i32 %137, ptr %4, align 4
  store i32 0, ptr %6, align 4
  br label %138

138:                                              ; preds = %134, %133
  call void @llvm.lifetime.end.p0(i64 4, ptr %8) #14
  %139 = load i32, ptr %6, align 4
  switch i32 %139, label %151 [
    i32 0, label %140
  ]

140:                                              ; preds = %138
  br label %141

141:                                              ; preds = %140, %100
  %142 = load ptr, ptr %3, align 8
  %143 = load i32, ptr %4, align 4
  %144 = sext i32 %143 to i64
  %145 = getelementptr inbounds i8, ptr %142, i64 %144
  %146 = load i8, ptr %145, align 1
  %147 = sext i8 %146 to i32
  %148 = icmp ne i32 %147, 0
  br i1 %148, label %149, label %150

149:                                              ; preds = %141
  store i1 false, ptr %2, align 1
  store i32 1, ptr %6, align 4
  br label %151

150:                                              ; preds = %141
  store i1 true, ptr %2, align 1
  store i32 1, ptr %6, align 4
  br label %151

151:                                              ; preds = %150, %149, %138, %97, %73, %46, %14
  call void @llvm.lifetime.end.p0(i64 4, ptr %5) #14
  call void @llvm.lifetime.end.p0(i64 4, ptr %4) #14
  %152 = load i1, ptr %2, align 1
  ret i1 %152
}