; Function Attrs: nounwind uwtable
define dso_local zeroext i1 @looks_like_temp_rel_name(ptr noundef %0) local_unnamed_addr #0 {
  %2 = load i8, ptr %0, align 1
  %.not = icmp eq i8 %2, 116
  br i1 %.not, label %.preheader47, label %52

.preheader47:                                     ; preds = %1
  %3 = tail call ptr @__ctype_b_loc() #26
  %4 = load ptr, ptr %3, align 8
  br label %5

5:                                                ; preds = %5, %.preheader47
  %.037 = phi i32 [ %13, %5 ], [ 1, %.preheader47 ]
  %6 = sext i32 %.037 to i64
  %7 = getelementptr inbounds i8, ptr %0, i64 %6
  %8 = load i8, ptr %7, align 1
  %9 = zext i8 %8 to i64
  %10 = getelementptr inbounds nuw i16, ptr %4, i64 %9
  %11 = load i16, ptr %10, align 2
  %12 = and i16 %11, 2048
  %.not42 = icmp eq i16 %12, 0
  %13 = add i32 %.037, 1
  br i1 %.not42, label %14, label %5, !llvm.loop !25

14:                                               ; preds = %5
  %15 = icmp ne i32 %.037, 1
  %.not43 = icmp eq i8 %8, 95
  %or.cond = and i1 %15, %.not43
  br i1 %or.cond, label %.preheader60, label %52

.preheader60:                                     ; preds = %14, %.preheader60
  %.138 = phi i32 [ %23, %.preheader60 ], [ %13, %14 ]
  %16 = sext i32 %.138 to i64
  %17 = getelementptr inbounds i8, ptr %0, i64 %16
  %18 = load i8, ptr %17, align 1
  %19 = zext i8 %18 to i64
  %20 = getelementptr inbounds nuw i16, ptr %4, i64 %19
  %21 = load i16, ptr %20, align 2
  %22 = and i16 %21, 2048
  %.not44 = icmp eq i16 %22, 0
  %23 = add i32 %.138, 1
  br i1 %.not44, label %24, label %.preheader60, !llvm.loop !26

24:                                               ; preds = %.preheader60
  %25 = icmp eq i32 %13, %.138
  br i1 %25, label %52, label %26

26:                                               ; preds = %24
  %27 = icmp eq i8 %18, 95
  br i1 %27, label %28, label %34

28:                                               ; preds = %26
  %29 = sext i32 %23 to i64
  %30 = getelementptr inbounds i8, ptr %0, i64 %29
  %31 = tail call i32 @forkname_chars(ptr noundef nonnull %30, ptr noundef null) #25
  %32 = icmp sgt i32 %31, 0
  br i1 %32, label %._crit_edge, label %52

._crit_edge:                                      ; preds = %28
  %33 = add i32 %23, %31
  %.phi.trans.insert = sext i32 %33 to i64
  %.phi.trans.insert54 = getelementptr inbounds i8, ptr %0, i64 %.phi.trans.insert
  %.pre = load i8, ptr %.phi.trans.insert54, align 1
  br label %34

34:                                               ; preds = %._crit_edge, %26
  %35 = phi i8 [ %.pre, %._crit_edge ], [ %18, %26 ]
  %.239 = phi i32 [ %33, %._crit_edge ], [ %.138, %26 ]
  %36 = icmp eq i8 %35, 46
  br i1 %36, label %.preheader, label %50

.preheader:                                       ; preds = %34
  %37 = load ptr, ptr %3, align 8
  br label %38

38:                                               ; preds = %38, %.preheader
  %.0 = phi i32 [ %47, %38 ], [ 1, %.preheader ]
  %39 = add i32 %.0, %.239
  %40 = sext i32 %39 to i64
  %41 = getelementptr inbounds i8, ptr %0, i64 %40
  %42 = load i8, ptr %41, align 1
  %43 = zext i8 %42 to i64
  %44 = getelementptr inbounds nuw i16, ptr %37, i64 %43
  %45 = load i16, ptr %44, align 2
  %46 = and i16 %45, 2048
  %.not45 = icmp eq i16 %46, 0
  %47 = add i32 %.0, 1
  br i1 %.not45, label %48, label %38, !llvm.loop !27

48:                                               ; preds = %38
  %49 = icmp sgt i32 %.0, 1
  br i1 %49, label %50, label %52

50:                                               ; preds = %48, %34
  %51 = phi i8 [ %42, %48 ], [ %35, %34 ]
  %.not46 = icmp eq i8 %51, 0
  br label %52

52:                                               ; preds = %50, %24, %14, %1, %28, %48
  %.034 = phi i1 [ false, %48 ], [ false, %28 ], [ false, %1 ], [ false, %14 ], [ false, %24 ], [ %.not46, %50 ]
  ret i1 %.034
}